target datalayout = "e-m:e-p270:32:32-p271:32:32-p272:64:64-i64:64-i128:128-f80:128-n8:16:32:64-S128"
target triple = "x86_64-pc-linux-gnu"

%struct.MultiXactMember = type { i32, i32 }
%struct.FunctionCallInfoBaseData = type { ptr, ptr, ptr, i32, i8, i16, [0 x %struct.NullableDatum] }
%struct.NullableDatum = type { i64, i8 }
%struct.FmgrInfo = type { ptr, i32, i16, i8, i8, i8, ptr, ptr, ptr }
%struct.FuncCallContext = type { i64, i64, ptr, ptr, ptr, ptr }
%struct.mxact = type { ptr, i32, i32 }
%struct.ReturnSetInfo = type { i32, ptr, ptr, i32, i32, i32, ptr, ptr }
%struct.HeapTupleData = type { i32, %struct.ItemPointerData, i32, ptr }
%struct.ItemPointerData = type { %struct.BlockIdData, i16 }
%struct.BlockIdData = type { i16, i16 }

@.str.1 = private unnamed_addr constant [12 x i8] c"multixact.c\00", align 1
@.str.26 = private unnamed_addr constant [24 x i8] c"invalid MultiXactId: %u\00", align 1
@__func__.pg_get_multixact_members = private unnamed_addr constant [25 x i8] c"pg_get_multixact_members\00", align 1
@.str.27 = private unnamed_addr constant [31 x i8] c"return type must be a row type\00", align 1
@.str.28 = private unnamed_addr constant [3 x i8] c"%u\00", align 1
@.str.41 = private unnamed_addr constant [6 x i8] c"keysh\00", align 1
@.str.42 = private unnamed_addr constant [3 x i8] c"sh\00", align 1
@.str.43 = private unnamed_addr constant [12 x i8] c"fornokeyupd\00", align 1
@.str.44 = private unnamed_addr constant [7 x i8] c"forupd\00", align 1
@.str.45 = private unnamed_addr constant [9 x i8] c"nokeyupd\00", align 1
@.str.46 = private unnamed_addr constant [4 x i8] c"upd\00", align 1
@.str.47 = private unnamed_addr constant [33 x i8] c"unrecognized multixact status %d\00", align 1
@__func__.mxstatus_to_string = private unnamed_addr constant [19 x i8] c"mxstatus_to_string\00", align 1
@.str.48 = private unnamed_addr constant [1 x i8] zeroinitializer, align 1
@CurrentMemoryContext = external global ptr, align 8

; Function Attrs: inlinehint nounwind uwtable
define internal i64 @HeapTupleGetDatum(ptr noundef %0) #4 {
  %2 = alloca ptr, align 8
  store ptr %0, ptr %2, align 8
  %3 = load ptr, ptr %2, align 8
  %4 = getelementptr inbounds nuw %struct.HeapTupleData, ptr %3, i32 0, i32 3
  %5 = load ptr, ptr %4, align 8
  %6 = call i64 @HeapTupleHeaderGetDatum(ptr noundef %5)
  ret i64 %6
}

; Function Attrs: nounwind uwtable
define internal ptr @mxstatus_to_string(i32 noundef %0) #0 {
  %2 = alloca ptr, align 8
  %3 = alloca i32, align 4
  store i32 %0, ptr %3, align 4
  %4 = load i32, ptr %3, align 4
  switch i32 %4, label %11 [
    i32 0, label %5
    i32 1, label %6
    i32 2, label %7
    i32 3, label %8
    i32 4, label %9
    i32 5, label %10
  ]

5:                                                ; preds = %1
  store ptr @.str.41, ptr %2, align 8
  br label %22

6:                                                ; preds = %1
  store ptr @.str.42, ptr %2, align 8
  br label %22

7:                                                ; preds = %1
  store ptr @.str.43, ptr %2, align 8
  br label %22

8:                                                ; preds = %1
  store ptr @.str.44, ptr %2, align 8
  br label %22

9:                                                ; preds = %1
  store ptr @.str.45, ptr %2, align 8
  br label %22

10:                                               ; preds = %1
  store ptr @.str.46, ptr %2, align 8
  br label %22

11:                                               ; preds = %1
  br label %12

12:                                               ; preds = %11
  br i1 true, label %13, label %15

13:                                               ; preds = %12
  %14 = call zeroext i1 @errstart_cold(i32 noundef 21, ptr noundef null) #10
  br i1 %14, label %17, label %20

15:                                               ; preds = %12
  %16 = call zeroext i1 @errstart(i32 noundef 21, ptr noundef null)
  br i1 %16, label %17, label %20

17:                                               ; preds = %15, %13
  %18 = load i32, ptr %3, align 4
  %19 = call i32 (ptr, ...) @errmsg_internal(ptr noundef @.str.47, i32 noundef %18)
  call void @errfinish(ptr noundef @.str.1, i32 noundef 1771, ptr noundef @__func__.mxstatus_to_string)
  br label %20

20:                                               ; preds = %17, %15, %13
  unreachable

21:                                               ; No predecessors!
  store ptr @.str.48, ptr %2, align 8
  br label %22

22:                                               ; preds = %21, %10, %9, %8, %7, %6, %5
  %23 = load ptr, ptr %2, align 8
  ret ptr %23
}

; Function Attrs: inlinehint nounwind uwtable
define internal ptr @MemoryContextSwitchTo(ptr noundef %0) #4 {
  %2 = alloca ptr, align 8
  %3 = alloca ptr, align 8
  store ptr %0, ptr %2, align 8
  call void @llvm.lifetime.start.p0(i64 8, ptr %3) #9
  %4 = load ptr, ptr @CurrentMemoryContext, align 8
  store ptr %4, ptr %3, align 8
  %5 = load ptr, ptr %2, align 8
  store ptr %5, ptr @CurrentMemoryContext, align 8
  %6 = load ptr, ptr %3, align 8
  call void @llvm.lifetime.end.p0(i64 8, ptr %3) #9
  ret ptr %6
}

; Function Attrs: inlinehint nounwind uwtable
define internal i32 @DatumGetTransactionId(i64 noundef %0) #4 {
  %2 = alloca i64, align 8
  store i64 %0, ptr %2, align 8
  %3 = load i64, ptr %2, align 8
  %4 = trunc i64 %3 to i32
  ret i32 %4
}

; Function Attrs: nounwind uwtable
define dso_local i64 @pg_get_multixact_members(ptr noundef %0) #0 {
  %2 = alloca i64, align 8
  %3 = alloca ptr, align 8
  %4 = alloca i32, align 4
  %5 = alloca ptr, align 8
  %6 = alloca ptr, align 8
  %7 = alloca ptr, align 8
  %8 = alloca ptr, align 8
  %9 = alloca ptr, align 8
  %10 = alloca [2 x ptr], align 16
  %11 = alloca ptr, align 8
  %12 = alloca i32, align 4
  %13 = alloca ptr, align 8
  store ptr %0, ptr %3, align 8
  call void @llvm.lifetime.start.p0(i64 4, ptr %4) #9
  %14 = load ptr, ptr %3, align 8
  %15 = getelementptr inbounds nuw %struct.FunctionCallInfoBaseData, ptr %14, i32 0, i32 6
  %16 = getelementptr inbounds [0 x %struct.NullableDatum], ptr %15, i64 0, i64 0
  %17 = getelementptr inbounds nuw %struct.NullableDatum, ptr %16, i32 0, i32 0
  %18 = load i64, ptr %17, align 8
  %19 = call i32 @DatumGetTransactionId(i64 noundef %18)
  store i32 %19, ptr %4, align 4
  call void @llvm.lifetime.start.p0(i64 8, ptr %5) #9
  call void @llvm.lifetime.start.p0(i64 8, ptr %6) #9
  %20 = load i32, ptr %4, align 4
  %21 = icmp ult i32 %20, 1
  br i1 %21, label %22, label %35

22:                                               ; preds = %1
  br label %23

23:                                               ; preds = %22
  br i1 true, label %24, label %26

24:                                               ; preds = %23
  %25 = call zeroext i1 @errstart_cold(i32 noundef 21, ptr noundef null) #10
  br i1 %25, label %28, label %32

26:                                               ; preds = %23
  %27 = call zeroext i1 @errstart(i32 noundef 21, ptr noundef null)
  br i1 %27, label %28, label %32

28:                                               ; preds = %26, %24
  %29 = call i32 @errcode(i32 noundef 50856066)
  %30 = load i32, ptr %4, align 4
  %31 = call i32 (ptr, ...) @errmsg(ptr noundef @.str.26, i32 noundef %30)
  call void @errfinish(ptr noundef @.str.1, i32 noundef 3525, ptr noundef @__func__.pg_get_multixact_members)
  br label %32

32:                                               ; preds = %28, %26, %24
  unreachable

33:                                               ; No predecessors!
  br label %34

34:                                               ; preds = %33
  br label %35

35:                                               ; preds = %34, %1
  %36 = load ptr, ptr %3, align 8
  %37 = getelementptr inbounds nuw %struct.FunctionCallInfoBaseData, ptr %36, i32 0, i32 0
  %38 = load ptr, ptr %37, align 8
  %39 = getelementptr inbounds nuw %struct.FmgrInfo, ptr %38, i32 0, i32 6
  %40 = load ptr, ptr %39, align 8
  %41 = icmp eq ptr %40, null
  br i1 %41, label %42, label %85

42:                                               ; preds = %35
  call void @llvm.lifetime.start.p0(i64 8, ptr %7) #9
  call void @llvm.lifetime.start.p0(i64 8, ptr %8) #9
  %43 = load ptr, ptr %3, align 8
  %44 = call ptr @init_MultiFuncCall(ptr noundef %43)
  store ptr %44, ptr %6, align 8
  %45 = load ptr, ptr %6, align 8
  %46 = getelementptr inbounds nuw %struct.FuncCallContext, ptr %45, i32 0, i32 4
  %47 = load ptr, ptr %46, align 8
  %48 = call ptr @MemoryContextSwitchTo(ptr noundef %47)
  store ptr %48, ptr %7, align 8
  %49 = call ptr @palloc(i64 noundef 16)
  store ptr %49, ptr %5, align 8
  %50 = load i32, ptr %4, align 4
  %51 = load ptr, ptr %5, align 8
  %52 = getelementptr inbounds nuw %struct.mxact, ptr %51, i32 0, i32 0
  %53 = call i32 @GetMultiXactIdMembers(i32 noundef %50, ptr noundef %52, i1 noundef zeroext false, i1 noundef zeroext false)
  %54 = load ptr, ptr %5, align 8
  %55 = getelementptr inbounds nuw %struct.mxact, ptr %54, i32 0, i32 1
  store i32 %53, ptr %55, align 8
  %56 = load ptr, ptr %5, align 8
  %57 = getelementptr inbounds nuw %struct.mxact, ptr %56, i32 0, i32 2
  store i32 0, ptr %57, align 4
  %58 = load ptr, ptr %3, align 8
  %59 = call i32 @get_call_result_type(ptr noundef %58, ptr noundef null, ptr noundef %8)
  %60 = icmp ne i32 %59, 1
  br i1 %60, label %61, label %72

61:                                               ; preds = %42
  br label %62

62:                                               ; preds = %61
  br i1 true, label %63, label %65

63:                                               ; preds = %62
  %64 = call zeroext i1 @errstart_cold(i32 noundef 21, ptr noundef null) #10
  br i1 %64, label %67, label %69

65:                                               ; preds = %62
  %66 = call zeroext i1 @errstart(i32 noundef 21, ptr noundef null)
  br i1 %66, label %67, label %69

67:                                               ; preds = %65, %63
  %68 = call i32 (ptr, ...) @errmsg_internal(ptr noundef @.str.27)
  call void @errfinish(ptr noundef @.str.1, i32 noundef 3542, ptr noundef @__func__.pg_get_multixact_members)
  br label %69

69:                                               ; preds = %67, %65, %63
  unreachable

70:                                               ; No predecessors!
  br label %71

71:                                               ; preds = %70
  br label %72

72:                                               ; preds = %71, %42
  %73 = load ptr, ptr %8, align 8
  %74 = load ptr, ptr %6, align 8
  %75 = getelementptr inbounds nuw %struct.FuncCallContext, ptr %74, i32 0, i32 5
  store ptr %73, ptr %75, align 8
  %76 = load ptr, ptr %8, align 8
  %77 = call ptr @TupleDescGetAttInMetadata(ptr noundef %76)
  %78 = load ptr, ptr %6, align 8
  %79 = getelementptr inbounds nuw %struct.FuncCallContext, ptr %78, i32 0, i32 3
  store ptr %77, ptr %79, align 8
  %80 = load ptr, ptr %5, align 8
  %81 = load ptr, ptr %6, align 8
  %82 = getelementptr inbounds nuw %struct.FuncCallContext, ptr %81, i32 0, i32 2
  store ptr %80, ptr %82, align 8
  %83 = load ptr, ptr %7, align 8
  %84 = call ptr @MemoryContextSwitchTo(ptr noundef %83)
  call void @llvm.lifetime.end.p0(i64 8, ptr %8) #9
  call void @llvm.lifetime.end.p0(i64 8, ptr %7) #9
  br label %85

85:                                               ; preds = %72, %35
  %86 = load ptr, ptr %3, align 8
  %87 = call ptr @per_MultiFuncCall(ptr noundef %86)
  store ptr %87, ptr %6, align 8
  %88 = load ptr, ptr %6, align 8
  %89 = getelementptr inbounds nuw %struct.FuncCallContext, ptr %88, i32 0, i32 2
  %90 = load ptr, ptr %89, align 8
  store ptr %90, ptr %5, align 8
  br label %91

91:                                               ; preds = %151, %85
  %92 = load ptr, ptr %5, align 8
  %93 = getelementptr inbounds nuw %struct.mxact, ptr %92, i32 0, i32 2
  %94 = load i32, ptr %93, align 4
  %95 = load ptr, ptr %5, align 8
  %96 = getelementptr inbounds nuw %struct.mxact, ptr %95, i32 0, i32 1
  %97 = load i32, ptr %96, align 8
  %98 = icmp slt i32 %94, %97
  br i1 %98, label %99, label %152

99:                                               ; preds = %91
  call void @llvm.lifetime.start.p0(i64 8, ptr %9) #9
  call void @llvm.lifetime.start.p0(i64 16, ptr %10) #9
  %100 = load ptr, ptr %5, align 8
  %101 = getelementptr inbounds nuw %struct.mxact, ptr %100, i32 0, i32 0
  %102 = load ptr, ptr %101, align 8
  %103 = load ptr, ptr %5, align 8
  %104 = getelementptr inbounds nuw %struct.mxact, ptr %103, i32 0, i32 2
  %105 = load i32, ptr %104, align 4
  %106 = sext i32 %105 to i64
  %107 = getelementptr inbounds %struct.MultiXactMember, ptr %102, i64 %106
  %108 = getelementptr inbounds nuw %struct.MultiXactMember, ptr %107, i32 0, i32 0
  %109 = load i32, ptr %108, align 4
  %110 = call ptr (ptr, ...) @psprintf(ptr noundef @.str.28, i32 noundef %109)
  %111 = getelementptr inbounds [2 x ptr], ptr %10, i64 0, i64 0
  store ptr %110, ptr %111, align 16
  %112 = load ptr, ptr %5, align 8
  %113 = getelementptr inbounds nuw %struct.mxact, ptr %112, i32 0, i32 0
  %114 = load ptr, ptr %113, align 8
  %115 = load ptr, ptr %5, align 8
  %116 = getelementptr inbounds nuw %struct.mxact, ptr %115, i32 0, i32 2
  %117 = load i32, ptr %116, align 4
  %118 = sext i32 %117 to i64
  %119 = getelementptr inbounds %struct.MultiXactMember, ptr %114, i64 %118
  %120 = getelementptr inbounds nuw %struct.MultiXactMember, ptr %119, i32 0, i32 1
  %121 = load i32, ptr %120, align 4
  %122 = call ptr @mxstatus_to_string(i32 noundef %121)
  %123 = getelementptr inbounds [2 x ptr], ptr %10, i64 0, i64 1
  store ptr %122, ptr %123, align 8
  %124 = load ptr, ptr %6, align 8
  %125 = getelementptr inbounds nuw %struct.FuncCallContext, ptr %124, i32 0, i32 3
  %126 = load ptr, ptr %125, align 8
  %127 = getelementptr inbounds [2 x ptr], ptr %10, i64 0, i64 0
  %128 = call ptr @BuildTupleFromCStrings(ptr noundef %126, ptr noundef %127)
  store ptr %128, ptr %9, align 8
  %129 = load ptr, ptr %5, align 8
  %130 = getelementptr inbounds nuw %struct.mxact, ptr %129, i32 0, i32 2
  %131 = load i32, ptr %130, align 4
  %132 = add i32 %131, 1
  store i32 %132, ptr %130, align 4
  %133 = getelementptr inbounds [2 x ptr], ptr %10, i64 0, i64 0
  %134 = load ptr, ptr %133, align 16
  call void @pfree(ptr noundef %134)
  br label %135

135:                                              ; preds = %99
  call void @llvm.lifetime.start.p0(i64 8, ptr %11) #9
  %136 = load ptr, ptr %6, align 8
  %137 = getelementptr inbounds nuw %struct.FuncCallContext, ptr %136, i32 0, i32 0
  %138 = load i64, ptr %137, align 8
  %139 = add i64 %138, 1
  store i64 %139, ptr %137, align 8
  %140 = load ptr, ptr %3, align 8
  %141 = getelementptr inbounds nuw %struct.FunctionCallInfoBaseData, ptr %140, i32 0, i32 2
  %142 = load ptr, ptr %141, align 8
  store ptr %142, ptr %11, align 8
  %143 = load ptr, ptr %11, align 8
  %144 = getelementptr inbounds nuw %struct.ReturnSetInfo, ptr %143, i32 0, i32 5
  store i32 1, ptr %144, align 8
  %145 = load ptr, ptr %9, align 8
  %146 = call i64 @HeapTupleGetDatum(ptr noundef %145)
  store i64 %146, ptr %2, align 8
  store i32 1, ptr %12, align 4
  call void @llvm.lifetime.end.p0(i64 8, ptr %11) #9
  br label %149

147:                                              ; No predecessors!
  br label %148

148:                                              ; preds = %147
  store i32 0, ptr %12, align 4
  br label %149

149:                                              ; preds = %148, %135
  call void @llvm.lifetime.end.p0(i64 16, ptr %10) #9
  call void @llvm.lifetime.end.p0(i64 8, ptr %9) #9
  %150 = load i32, ptr %12, align 4
  switch i32 %150, label %171 [
    i32 0, label %151
  ]

151:                                              ; preds = %149
  br label %91, !llvm.loop !24

152:                                              ; preds = %91
  br label %153

153:                                              ; preds = %152
  call void @llvm.lifetime.start.p0(i64 8, ptr %13) #9
  %154 = load ptr, ptr %3, align 8
  %155 = load ptr, ptr %6, align 8
  call void @end_MultiFuncCall(ptr noundef %154, ptr noundef %155)
  %156 = load ptr, ptr %3, align 8
  %157 = getelementptr inbounds nuw %struct.FunctionCallInfoBaseData, ptr %156, i32 0, i32 2
  %158 = load ptr, ptr %157, align 8
  store ptr %158, ptr %13, align 8
  %159 = load ptr, ptr %13, align 8
  %160 = getelementptr inbounds nuw %struct.ReturnSetInfo, ptr %159, i32 0, i32 5
  store i32 2, ptr %160, align 8
  br label %161

161:                                              ; preds = %153
  %162 = load ptr, ptr %3, align 8
  %163 = getelementptr inbounds nuw %struct.FunctionCallInfoBaseData, ptr %162, i32 0, i32 4
  store i8 1, ptr %163, align 4
  store i64 0, ptr %2, align 8
  store i32 1, ptr %12, align 4
  br label %166

164:                                              ; No predecessors!
  br label %165

165:                                              ; preds = %164
  store i32 0, ptr %12, align 4
  br label %166

166:                                              ; preds = %165, %161
  call void @llvm.lifetime.end.p0(i64 8, ptr %13) #9
  %167 = load i32, ptr %12, align 4
  switch i32 %167, label %171 [
    i32 0, label %168
  ]

168:                                              ; preds = %166
  br label %169

169:                                              ; preds = %168
  br label %170

170:                                              ; preds = %169
  store i32 0, ptr %12, align 4
  br label %171

171:                                              ; preds = %170, %166, %149
  call void @llvm.lifetime.end.p0(i64 8, ptr %6) #9
  call void @llvm.lifetime.end.p0(i64 8, ptr %5) #9
  call void @llvm.lifetime.end.p0(i64 4, ptr %4) #9
  %172 = load i32, ptr %12, align 4
  switch i32 %172, label %175 [
    i32 0, label %173
    i32 1, label %173
  ]

173:                                              ; preds = %171, %171
  %174 = load i64, ptr %2, align 8
  ret i64 %174

175:                                              ; preds = %171
  unreachable
}