; Function Attrs: nounwind uwtable
define dso_local i64 @pg_get_multixact_members(ptr noundef %0) local_unnamed_addr #0 {
  %2 = alloca ptr, align 8
  %3 = alloca [2 x ptr], align 16
  %4 = getelementptr inbounds nuw i8, ptr %0, i64 32
  %5 = load i64, ptr %4, align 8
  %6 = trunc i64 %5 to i32
  %7 = icmp eq i32 %6, 0
  br i1 %7, label %8, label %12

8:                                                ; preds = %1
  %9 = tail call zeroext i1 @errstart_cold(i32 noundef 21, ptr noundef null) #14
  tail call void @llvm.assume(i1 %9)
  %10 = tail call i32 @errcode(i32 noundef 50856066) #13
  %11 = tail call i32 (ptr, ...) @errmsg(ptr noundef nonnull @.str.26, i32 noundef 0) #13
  tail call void @errfinish(ptr noundef nonnull @.str.1, i32 noundef 3525, ptr noundef nonnull @__func__.pg_get_multixact_members) #13
  unreachable

12:                                               ; preds = %1
  %13 = load ptr, ptr %0, align 8
  %14 = getelementptr inbounds nuw i8, ptr %13, i64 24
  %15 = load ptr, ptr %14, align 8
  %16 = icmp eq ptr %15, null
  br i1 %16, label %17, label %36

17:                                               ; preds = %12
  call void @llvm.lifetime.start.p0(i64 8, ptr nonnull %2) #13
  %18 = tail call ptr @init_MultiFuncCall(ptr noundef nonnull %0) #13
  %19 = getelementptr inbounds nuw i8, ptr %18, i64 32
  %20 = load ptr, ptr %19, align 8
  %21 = load ptr, ptr @CurrentMemoryContext, align 8
  store ptr %20, ptr @CurrentMemoryContext, align 8
  %22 = tail call ptr @palloc(i64 noundef 16) #13
  %23 = tail call i32 @GetMultiXactIdMembers(i32 noundef %6, ptr noundef %22, i1 noundef zeroext false, i1 noundef zeroext false)
  %24 = getelementptr inbounds nuw i8, ptr %22, i64 8
  store i32 %23, ptr %24, align 8
  %25 = getelementptr inbounds nuw i8, ptr %22, i64 12
  store i32 0, ptr %25, align 4
  %26 = call i32 @get_call_result_type(ptr noundef nonnull %0, ptr noundef null, ptr noundef nonnull %2) #13
  %.not = icmp eq i32 %26, 1
  br i1 %.not, label %30, label %27

27:                                               ; preds = %17
  %28 = call zeroext i1 @errstart_cold(i32 noundef 21, ptr noundef null) #14
  call void @llvm.assume(i1 %28)
  %29 = call i32 (ptr, ...) @errmsg_internal(ptr noundef nonnull @.str.27) #13
  call void @errfinish(ptr noundef nonnull @.str.1, i32 noundef 3542, ptr noundef nonnull @__func__.pg_get_multixact_members) #13
  unreachable

30:                                               ; preds = %17
  %31 = load ptr, ptr %2, align 8
  %32 = getelementptr inbounds nuw i8, ptr %18, i64 40
  store ptr %31, ptr %32, align 8
  %33 = call ptr @TupleDescGetAttInMetadata(ptr noundef %31) #13
  %34 = getelementptr inbounds nuw i8, ptr %18, i64 24
  store ptr %33, ptr %34, align 8
  %35 = getelementptr inbounds nuw i8, ptr %18, i64 16
  store ptr %22, ptr %35, align 8
  store ptr %21, ptr @CurrentMemoryContext, align 8
  call void @llvm.lifetime.end.p0(i64 8, ptr nonnull %2) #13
  br label %36

36:                                               ; preds = %30, %12
  %37 = call ptr @per_MultiFuncCall(ptr noundef nonnull %0) #13
  %38 = getelementptr inbounds nuw i8, ptr %37, i64 16
  %39 = load ptr, ptr %38, align 8
  %40 = getelementptr inbounds nuw i8, ptr %39, i64 12
  %41 = load i32, ptr %40, align 4
  %42 = getelementptr inbounds nuw i8, ptr %39, i64 8
  %43 = load i32, ptr %42, align 8
  %44 = icmp slt i32 %41, %43
  br i1 %44, label %45, label %75

45:                                               ; preds = %36
  call void @llvm.lifetime.start.p0(i64 16, ptr nonnull %3) #13
  %46 = load ptr, ptr %39, align 8
  %47 = sext i32 %41 to i64
  %48 = getelementptr inbounds %struct.MultiXactMember, ptr %46, i64 %47
  %49 = load i32, ptr %48, align 4
  %50 = call ptr (ptr, ...) @psprintf(ptr noundef nonnull @.str.28, i32 noundef %49) #13
  store ptr %50, ptr %3, align 16
  %51 = load ptr, ptr %39, align 8
  %52 = load i32, ptr %40, align 4
  %53 = sext i32 %52 to i64
  %54 = getelementptr inbounds %struct.MultiXactMember, ptr %51, i64 %53, i32 1
  %55 = load i32, ptr %54, align 4
  %56 = icmp ult i32 %55, 6
  br i1 %56, label %switch.lookup, label %57

57:                                               ; preds = %45
  %58 = call zeroext i1 @errstart_cold(i32 noundef 21, ptr noundef null) #14
  call void @llvm.assume(i1 %58)
  %59 = call i32 (ptr, ...) @errmsg_internal(ptr noundef nonnull @.str.47, i32 noundef %55) #13
  call void @errfinish(ptr noundef nonnull @.str.1, i32 noundef 1771, ptr noundef nonnull @__func__.mxstatus_to_string) #13
  unreachable

switch.lookup:                                    ; preds = %45
  %60 = zext nneg i32 %55 to i64
  %switch.gep = getelementptr inbounds nuw [6 x ptr], ptr @switch.table.pg_get_multixact_members, i64 0, i64 %60
  %switch.load = load ptr, ptr %switch.gep, align 8
  %61 = getelementptr inbounds nuw i8, ptr %3, i64 8
  store ptr %switch.load, ptr %61, align 8
  %62 = getelementptr inbounds nuw i8, ptr %37, i64 24
  %63 = load ptr, ptr %62, align 8
  %64 = call ptr @BuildTupleFromCStrings(ptr noundef %63, ptr noundef nonnull %3) #13
  %65 = load i32, ptr %40, align 4
  %66 = add i32 %65, 1
  store i32 %66, ptr %40, align 4
  %67 = load ptr, ptr %3, align 16
  call void @pfree(ptr noundef %67) #13
  %68 = load i64, ptr %37, align 8
  %69 = add i64 %68, 1
  store i64 %69, ptr %37, align 8
  %70 = getelementptr inbounds nuw i8, ptr %0, i64 16
  %71 = load ptr, ptr %70, align 8
  %72 = getelementptr inbounds nuw i8, ptr %71, i64 32
  store i32 1, ptr %72, align 8
  %73 = getelementptr i8, ptr %64, i64 16
  %.val = load ptr, ptr %73, align 8
  %74 = call i64 @HeapTupleHeaderGetDatum(ptr noundef %.val) #13
  call void @llvm.lifetime.end.p0(i64 16, ptr nonnull %3) #13
  br label %80

75:                                               ; preds = %36
  call void @end_MultiFuncCall(ptr noundef nonnull %0, ptr noundef nonnull %37) #13
  %76 = getelementptr inbounds nuw i8, ptr %0, i64 16
  %77 = load ptr, ptr %76, align 8
  %78 = getelementptr inbounds nuw i8, ptr %77, i64 32
  store i32 2, ptr %78, align 8
  %79 = getelementptr inbounds nuw i8, ptr %0, i64 28
  store i8 1, ptr %79, align 4
  br label %80

80:                                               ; preds = %switch.lookup, %75
  %.0 = phi i64 [ %74, %switch.lookup ], [ 0, %75 ]
  ret i64 %.0
}